target datalayout = "e-m:e-p270:32:32-p271:32:32-p272:64:64-i64:64-i128:128-f80:128-n8:16:32:64-S128"
target triple = "x86_64-pc-linux-gnu"

%struct.mi_option_desc_s = type { i64, i32, i32, ptr, ptr }
%struct.__va_list_tag = type { i32, i32, ptr, ptr }

@.str.3 = private unnamed_addr constant [11 x i8] c"mimalloc: \00", align 1

; Function Attrs: nounwind uwtable
define hidden i64 @mi_option_get(i32 noundef %0) #0 {
  %2 = alloca i64, align 8
  %3 = alloca i32, align 4
  %4 = alloca ptr, align 8
  store i32 %0, ptr %3, align 4, !tbaa !3
  %5 = load i32, ptr %3, align 4, !tbaa !3
  %6 = icmp ult i32 %5, 0
  br i1 %6, label %10, label %7

7:                                                ; preds = %1
  %8 = load i32, ptr %3, align 4, !tbaa !3
  %9 = icmp uge i32 %8, 36
  br i1 %9, label %10, label %11

10:                                               ; preds = %7, %1
  store i64 0, ptr %2, align 8
  br label %31

11:                                               ; preds = %7
  call void @llvm.lifetime.start.p0(i64 8, ptr %4) #12
  %12 = load i32, ptr %3, align 4, !tbaa !3
  %13 = zext i32 %12 to i64
  %14 = getelementptr inbounds nuw [36 x %struct.mi_option_desc_s], ptr @options, i64 0, i64 %13
  store ptr %14, ptr %4, align 8, !tbaa !9
  %15 = load ptr, ptr %4, align 8, !tbaa !9
  %16 = getelementptr inbounds nuw %struct.mi_option_desc_s, ptr %15, i32 0, i32 1
  %17 = load i32, ptr %16, align 8, !tbaa !19
  %18 = icmp eq i32 %17, 0
  %19 = xor i1 %18, true
  %20 = xor i1 %19, true
  %21 = zext i1 %20 to i32
  %22 = sext i32 %21 to i64
  %23 = call i64 @llvm.expect.i64(i64 %22, i64 0)
  %24 = icmp ne i64 %23, 0
  br i1 %24, label %25, label %27

25:                                               ; preds = %11
  %26 = load ptr, ptr %4, align 8, !tbaa !9
  call void @mi_option_init(ptr noundef %26) #11
  br label %27

27:                                               ; preds = %25, %11
  %28 = load ptr, ptr %4, align 8, !tbaa !9
  %29 = getelementptr inbounds nuw %struct.mi_option_desc_s, ptr %28, i32 0, i32 0
  %30 = load i64, ptr %29, align 8, !tbaa !15
  store i64 %30, ptr %2, align 8
  call void @llvm.lifetime.end.p0(i64 8, ptr %4) #12
  br label %31

31:                                               ; preds = %27, %10
  %32 = load i64, ptr %2, align 8
  ret i64 %32
}

; Function Attrs: nounwind uwtable
define hidden void @_mi_trace_message(ptr noundef %0, ...) #0 {
  %2 = alloca ptr, align 8
  %3 = alloca [1 x %struct.__va_list_tag], align 16
  store ptr %0, ptr %2, align 8, !tbaa !20
  %4 = call i64 @mi_option_get(i32 noundef 2) #11
  %5 = icmp sle i64 %4, 1
  br i1 %5, label %6, label %7

6:                                                ; preds = %1
  br label %12

7:                                                ; preds = %1
  call void @llvm.lifetime.start.p0(i64 24, ptr %3) #12
  %8 = getelementptr inbounds [1 x %struct.__va_list_tag], ptr %3, i64 0, i64 0
  call void @llvm.va_start.p0(ptr %8)
  %9 = load ptr, ptr %2, align 8, !tbaa !20
  %10 = getelementptr inbounds [1 x %struct.__va_list_tag], ptr %3, i64 0, i64 0
  call void @mi_vfprintf_thread(ptr noundef null, ptr noundef null, ptr noundef @.str.3, ptr noundef %9, ptr noundef %10) #11
  %11 = getelementptr inbounds [1 x %struct.__va_list_tag], ptr %3, i64 0, i64 0
  call void @llvm.va_end.p0(ptr %11)
  call void @llvm.lifetime.end.p0(i64 24, ptr %3) #12
  br label %12

12:                                               ; preds = %7, %6
  ret void
}