; Function Attrs: nounwind uwtable
define hidden void @_mi_trace_message(ptr noundef %0, ...) local_unnamed_addr #1 {
  %2 = alloca [1 x %struct.__va_list_tag], align 16
  %3 = load i32, ptr getelementptr inbounds nuw (i8, ptr @options, i64 72), align 8, !tbaa !8
  %4 = icmp eq i32 %3, 0
  br i1 %4, label %5, label %mi_option_get.exit, !prof !13

5:                                                ; preds = %1
  tail call fastcc void @mi_option_init(ptr noundef nonnull getelementptr inbounds nuw (i8, ptr @options, i64 64)) #17
  br label %mi_option_get.exit

mi_option_get.exit:                               ; preds = %1, %5
  %6 = load i64, ptr getelementptr inbounds nuw (i8, ptr @options, i64 64), align 16, !tbaa !14
  %7 = icmp slt i64 %6, 2
  br i1 %7, label %9, label %8

8:                                                ; preds = %mi_option_get.exit
  call void @llvm.lifetime.start.p0(i64 24, ptr nonnull %2) #18
  call void @llvm.va_start.p0(ptr nonnull %2)
  call fastcc void @mi_vfprintf_thread(ptr noundef nonnull @.str.3, ptr noundef %0, ptr noundef %2) #17
  call void @llvm.va_end.p0(ptr nonnull %2)
  call void @llvm.lifetime.end.p0(i64 24, ptr nonnull %2) #18
  br label %9

9:                                                ; preds = %mi_option_get.exit, %8
  ret void
}